target datalayout = "e-m:e-p270:32:32-p271:32:32-p272:64:64-i64:64-i128:128-f80:128-n8:16:32:64-S128"
target triple = "x86_64-pc-linux-gnu"

%struct.Extra_BitMat_t_ = type { ptr, i32, i32, i32, i32, i32, i32, i32 }

; Function Attrs: nounwind uwtable
define i32 @Extra_BitMatrixIsDisjoint(ptr noundef %0, ptr noundef %1) #0 {
  %3 = alloca i32, align 4
  %4 = alloca ptr, align 8
  %5 = alloca ptr, align 8
  %6 = alloca i32, align 4
  %7 = alloca i32, align 4
  store ptr %0, ptr %4, align 8
  store ptr %1, ptr %5, align 8
  store i32 0, ptr %6, align 4
  br label %8

8:                                                ; preds = %52, %2
  %9 = load i32, ptr %6, align 4
  %10 = load ptr, ptr %4, align 8
  %11 = getelementptr inbounds %struct.Extra_BitMat_t_, ptr %10, i32 0, i32 1
  %12 = load i32, ptr %11, align 8
  %13 = icmp slt i32 %9, %12
  br i1 %13, label %14, label %55

14:                                               ; preds = %8
  store i32 0, ptr %7, align 4
  br label %15

15:                                               ; preds = %48, %14
  %16 = load i32, ptr %7, align 4
  %17 = load ptr, ptr %4, align 8
  %18 = getelementptr inbounds %struct.Extra_BitMat_t_, ptr %17, i32 0, i32 2
  %19 = load i32, ptr %18, align 4
  %20 = icmp slt i32 %16, %19
  br i1 %20, label %21, label %51

21:                                               ; preds = %15
  %22 = load ptr, ptr %4, align 8
  %23 = getelementptr inbounds %struct.Extra_BitMat_t_, ptr %22, i32 0, i32 0
  %24 = load ptr, ptr %23, align 8
  %25 = load i32, ptr %6, align 4
  %26 = sext i32 %25 to i64
  %27 = getelementptr inbounds ptr, ptr %24, i64 %26
  %28 = load ptr, ptr %27, align 8
  %29 = load i32, ptr %7, align 4
  %30 = sext i32 %29 to i64
  %31 = getelementptr inbounds i32, ptr %28, i64 %30
  %32 = load i32, ptr %31, align 4
  %33 = load ptr, ptr %5, align 8
  %34 = getelementptr inbounds %struct.Extra_BitMat_t_, ptr %33, i32 0, i32 0
  %35 = load ptr, ptr %34, align 8
  %36 = load i32, ptr %6, align 4
  %37 = sext i32 %36 to i64
  %38 = getelementptr inbounds ptr, ptr %35, i64 %37
  %39 = load ptr, ptr %38, align 8
  %40 = load i32, ptr %7, align 4
  %41 = sext i32 %40 to i64
  %42 = getelementptr inbounds i32, ptr %39, i64 %41
  %43 = load i32, ptr %42, align 4
  %44 = and i32 %32, %43
  %45 = icmp ne i32 %44, 0
  br i1 %45, label %46, label %47

46:                                               ; preds = %21
  store i32 0, ptr %3, align 4
  br label %56

47:                                               ; preds = %21
  br label %48

48:                                               ; preds = %47
  %49 = load i32, ptr %7, align 4
  %50 = add nsw i32 %49, 1
  store i32 %50, ptr %7, align 4
  br label %15, !llvm.loop !13

51:                                               ; preds = %15
  br label %52

52:                                               ; preds = %51
  %53 = load i32, ptr %6, align 4
  %54 = add nsw i32 %53, 1
  store i32 %54, ptr %6, align 4
  br label %8, !llvm.loop !14

55:                                               ; preds = %8
  store i32 1, ptr %3, align 4
  br label %56

56:                                               ; preds = %55, %46
  %57 = load i32, ptr %3, align 4
  ret i32 %57
}