; Function Attrs: nofree norecurse nosync nounwind memory(read, inaccessiblemem: none) uwtable
define range(i32 0, 2) i32 @Extra_BitMatrixIsDisjoint(ptr noundef readonly captures(none) %0, ptr noundef readonly captures(none) %1) local_unnamed_addr #10 {
  %3 = getelementptr inbounds nuw i8, ptr %0, i64 8
  %4 = load i32, ptr %3, align 8
  %5 = icmp sgt i32 %4, 0
  br i1 %5, label %.preheader.lr.ph, label %.loopexit

.preheader.lr.ph:                                 ; preds = %2
  %6 = getelementptr inbounds nuw i8, ptr %0, i64 12
  %7 = load i32, ptr %6, align 4
  %8 = icmp sgt i32 %7, 0
  br i1 %8, label %.preheader.lr.ph.split.us, label %.loopexit

.preheader.lr.ph.split.us:                        ; preds = %.preheader.lr.ph
  %9 = load ptr, ptr %0, align 8
  %10 = load ptr, ptr %1, align 8
  %wide.trip.count23 = zext nneg i32 %4 to i64
  %wide.trip.count = zext nneg i32 %7 to i64
  br label %.preheader.us

.preheader.us:                                    ; preds = %._crit_edge.us, %.preheader.lr.ph.split.us
  %indvars.iv20 = phi i64 [ %indvars.iv.next21, %._crit_edge.us ], [ 0, %.preheader.lr.ph.split.us ]
  %11 = getelementptr inbounds nuw ptr, ptr %9, i64 %indvars.iv20
  %12 = load ptr, ptr %11, align 8
  %13 = getelementptr inbounds nuw ptr, ptr %10, i64 %indvars.iv20
  %14 = load ptr, ptr %13, align 8
  br label %16

15:                                               ; preds = %16
  %indvars.iv.next = add nuw nsw i64 %indvars.iv, 1
  %exitcond.not = icmp eq i64 %indvars.iv.next, %wide.trip.count
  br i1 %exitcond.not, label %._crit_edge.us, label %16, !llvm.loop !13

16:                                               ; preds = %.preheader.us, %15
  %indvars.iv = phi i64 [ 0, %.preheader.us ], [ %indvars.iv.next, %15 ]
  %17 = getelementptr inbounds nuw i32, ptr %12, i64 %indvars.iv
  %18 = load i32, ptr %17, align 4
  %19 = getelementptr inbounds nuw i32, ptr %14, i64 %indvars.iv
  %20 = load i32, ptr %19, align 4
  %21 = and i32 %20, %18
  %.not.us = icmp eq i32 %21, 0
  br i1 %.not.us, label %15, label %.loopexit

._crit_edge.us:                                   ; preds = %15
  %indvars.iv.next21 = add nuw nsw i64 %indvars.iv20, 1
  %exitcond24.not = icmp eq i64 %indvars.iv.next21, %wide.trip.count23
  br i1 %exitcond24.not, label %.loopexit, label %.preheader.us, !llvm.loop !14

.loopexit:                                        ; preds = %._crit_edge.us, %16, %.preheader.lr.ph, %2
  %.013 = phi i32 [ 1, %2 ], [ 1, %.preheader.lr.ph ], [ 0, %16 ], [ 1, %._crit_edge.us ]
  ret i32 %.013
}